target datalayout = "e-m:e-p270:32:32-p271:32:32-p272:64:64-i64:64-i128:128-f80:128-n8:16:32:64-S128"
target triple = "x86_64-pc-linux-gnu"

@.str = private unnamed_addr constant [35 x i8] c"../openssl/crypto/pkcs12/p12_utl.c\00", align 1

; Function Attrs: nounwind uwtable
define ptr @OPENSSL_asc2uni(ptr noundef %0, i32 noundef %1, ptr noundef %2, ptr noundef %3) #0 {
  %5 = alloca ptr, align 8
  %6 = alloca ptr, align 8
  %7 = alloca i32, align 4
  %8 = alloca ptr, align 8
  %9 = alloca ptr, align 8
  %10 = alloca i32, align 4
  %11 = alloca i32, align 4
  %12 = alloca ptr, align 8
  %13 = alloca i32, align 4
  store ptr %0, ptr %6, align 8, !tbaa !3
  store i32 %1, ptr %7, align 4, !tbaa !8
  store ptr %2, ptr %8, align 8, !tbaa !10
  store ptr %3, ptr %9, align 8, !tbaa !12
  call void @llvm.lifetime.start.p0(i64 4, ptr %10) #4
  call void @llvm.lifetime.start.p0(i64 4, ptr %11) #4
  call void @llvm.lifetime.start.p0(i64 8, ptr %12) #4
  %14 = load i32, ptr %7, align 4, !tbaa !8
  %15 = icmp eq i32 %14, -1
  br i1 %15, label %16, label %20

16:                                               ; preds = %4
  %17 = load ptr, ptr %6, align 8, !tbaa !3
  %18 = call i64 @strlen(ptr noundef %17) #5
  %19 = trunc i64 %18 to i32
  store i32 %19, ptr %7, align 4, !tbaa !8
  br label %20

20:                                               ; preds = %16, %4
  %21 = load i32, ptr %7, align 4, !tbaa !8
  %22 = icmp slt i32 %21, 0
  br i1 %22, label %23, label %24

23:                                               ; preds = %20
  store ptr null, ptr %5, align 8
  store i32 1, ptr %13, align 4
  br label %82

24:                                               ; preds = %20
  %25 = load i32, ptr %7, align 4, !tbaa !8
  %26 = mul nsw i32 %25, 2
  %27 = add nsw i32 %26, 2
  store i32 %27, ptr %10, align 4, !tbaa !8
  %28 = load i32, ptr %10, align 4, !tbaa !8
  %29 = sext i32 %28 to i64
  %30 = call noalias ptr @CRYPTO_malloc(i64 noundef %29, ptr noundef @.str, i32 noundef 29)
  store ptr %30, ptr %12, align 8, !tbaa !3
  %31 = icmp eq ptr %30, null
  br i1 %31, label %32, label %33

32:                                               ; preds = %24
  store ptr null, ptr %5, align 8
  store i32 1, ptr %13, align 4
  br label %82

33:                                               ; preds = %24
  store i32 0, ptr %11, align 4, !tbaa !8
  br label %34

34:                                               ; preds = %55, %33
  %35 = load i32, ptr %11, align 4, !tbaa !8
  %36 = load i32, ptr %10, align 4, !tbaa !8
  %37 = sub nsw i32 %36, 2
  %38 = icmp slt i32 %35, %37
  br i1 %38, label %39, label %58

39:                                               ; preds = %34
  %40 = load ptr, ptr %12, align 8, !tbaa !3
  %41 = load i32, ptr %11, align 4, !tbaa !8
  %42 = sext i32 %41 to i64
  %43 = getelementptr inbounds i8, ptr %40, i64 %42
  store i8 0, ptr %43, align 1, !tbaa !14
  %44 = load ptr, ptr %6, align 8, !tbaa !3
  %45 = load i32, ptr %11, align 4, !tbaa !8
  %46 = ashr i32 %45, 1
  %47 = sext i32 %46 to i64
  %48 = getelementptr inbounds i8, ptr %44, i64 %47
  %49 = load i8, ptr %48, align 1, !tbaa !14
  %50 = load ptr, ptr %12, align 8, !tbaa !3
  %51 = load i32, ptr %11, align 4, !tbaa !8
  %52 = add nsw i32 %51, 1
  %53 = sext i32 %52 to i64
  %54 = getelementptr inbounds i8, ptr %50, i64 %53
  store i8 %49, ptr %54, align 1, !tbaa !14
  br label %55

55:                                               ; preds = %39
  %56 = load i32, ptr %11, align 4, !tbaa !8
  %57 = add nsw i32 %56, 2
  store i32 %57, ptr %11, align 4, !tbaa !8
  br label %34, !llvm.loop !15

58:                                               ; preds = %34
  %59 = load ptr, ptr %12, align 8, !tbaa !3
  %60 = load i32, ptr %10, align 4, !tbaa !8
  %61 = sub nsw i32 %60, 2
  %62 = sext i32 %61 to i64
  %63 = getelementptr inbounds i8, ptr %59, i64 %62
  store i8 0, ptr %63, align 1, !tbaa !14
  %64 = load ptr, ptr %12, align 8, !tbaa !3
  %65 = load i32, ptr %10, align 4, !tbaa !8
  %66 = sub nsw i32 %65, 1
  %67 = sext i32 %66 to i64
  %68 = getelementptr inbounds i8, ptr %64, i64 %67
  store i8 0, ptr %68, align 1, !tbaa !14
  %69 = load ptr, ptr %9, align 8, !tbaa !12
  %70 = icmp ne ptr %69, null
  br i1 %70, label %71, label %74

71:                                               ; preds = %58
  %72 = load i32, ptr %10, align 4, !tbaa !8
  %73 = load ptr, ptr %9, align 8, !tbaa !12
  store i32 %72, ptr %73, align 4, !tbaa !8
  br label %74

74:                                               ; preds = %71, %58
  %75 = load ptr, ptr %8, align 8, !tbaa !10
  %76 = icmp ne ptr %75, null
  br i1 %76, label %77, label %80

77:                                               ; preds = %74
  %78 = load ptr, ptr %12, align 8, !tbaa !3
  %79 = load ptr, ptr %8, align 8, !tbaa !10
  store ptr %78, ptr %79, align 8, !tbaa !3
  br label %80

80:                                               ; preds = %77, %74
  %81 = load ptr, ptr %12, align 8, !tbaa !3
  store ptr %81, ptr %5, align 8
  store i32 1, ptr %13, align 4
  br label %82

82:                                               ; preds = %80, %32, %23
  call void @llvm.lifetime.end.p0(i64 8, ptr %12) #4
  call void @llvm.lifetime.end.p0(i64 4, ptr %11) #4
  call void @llvm.lifetime.end.p0(i64 4, ptr %10) #4
  %83 = load ptr, ptr %5, align 8
  ret ptr %83
}

; Function Attrs: nounwind uwtable
define ptr @OPENSSL_utf82uni(ptr noundef %0, i32 noundef %1, ptr noundef %2, ptr noundef %3) #0 {
  %5 = alloca ptr, align 8
  %6 = alloca ptr, align 8
  %7 = alloca i32, align 4
  %8 = alloca ptr, align 8
  %9 = alloca ptr, align 8
  %10 = alloca i32, align 4
  %11 = alloca i32, align 4
  %12 = alloca i32, align 4
  %13 = alloca ptr, align 8
  %14 = alloca ptr, align 8
  %15 = alloca i64, align 8
  %16 = alloca i32, align 4
  %17 = alloca i32, align 4
  %18 = alloca i32, align 4
  store ptr %0, ptr %6, align 8, !tbaa !3
  store i32 %1, ptr %7, align 4, !tbaa !8
  store ptr %2, ptr %8, align 8, !tbaa !10
  store ptr %3, ptr %9, align 8, !tbaa !12
  call void @llvm.lifetime.start.p0(i64 4, ptr %10) #4
  call void @llvm.lifetime.start.p0(i64 4, ptr %11) #4
  call void @llvm.lifetime.start.p0(i64 4, ptr %12) #4
  call void @llvm.lifetime.start.p0(i64 8, ptr %13) #4
  call void @llvm.lifetime.start.p0(i64 8, ptr %14) #4
  call void @llvm.lifetime.start.p0(i64 8, ptr %15) #4
  store i64 0, ptr %15, align 8, !tbaa !18
  %19 = load i32, ptr %7, align 4, !tbaa !8
  %20 = icmp eq i32 %19, -1
  br i1 %20, label %21, label %25

21:                                               ; preds = %4
  %22 = load ptr, ptr %6, align 8, !tbaa !3
  %23 = call i64 @strlen(ptr noundef %22) #5
  %24 = trunc i64 %23 to i32
  store i32 %24, ptr %7, align 4, !tbaa !8
  br label %25

25:                                               ; preds = %21, %4
  store i32 0, ptr %10, align 4, !tbaa !8
  store i32 0, ptr %11, align 4, !tbaa !8
  br label %26

26:                                               ; preds = %61, %25
  %27 = load i32, ptr %11, align 4, !tbaa !8
  %28 = load i32, ptr %7, align 4, !tbaa !8
  %29 = icmp slt i32 %27, %28
  br i1 %29, label %30, label %65

30:                                               ; preds = %26
  %31 = load ptr, ptr %6, align 8, !tbaa !3
  %32 = load i32, ptr %11, align 4, !tbaa !8
  %33 = sext i32 %32 to i64
  %34 = getelementptr inbounds i8, ptr %31, i64 %33
  %35 = load i32, ptr %7, align 4, !tbaa !8
  %36 = load i32, ptr %11, align 4, !tbaa !8
  %37 = sub nsw i32 %35, %36
  %38 = call i32 @UTF8_getc(ptr noundef %34, i32 noundef %37, ptr noundef %15)
  store i32 %38, ptr %12, align 4, !tbaa !8
  %39 = load i32, ptr %12, align 4, !tbaa !8
  %40 = icmp slt i32 %39, 0
  br i1 %40, label %41, label %47

41:                                               ; preds = %30
  %42 = load ptr, ptr %6, align 8, !tbaa !3
  %43 = load i32, ptr %7, align 4, !tbaa !8
  %44 = load ptr, ptr %8, align 8, !tbaa !10
  %45 = load ptr, ptr %9, align 8, !tbaa !12
  %46 = call ptr @OPENSSL_asc2uni(ptr noundef %42, i32 noundef %43, ptr noundef %44, ptr noundef %45)
  store ptr %46, ptr %5, align 8
  store i32 1, ptr %16, align 4
  br label %152

47:                                               ; preds = %30
  %48 = load i64, ptr %15, align 8, !tbaa !18
  %49 = icmp ugt i64 %48, 1114111
  br i1 %49, label %50, label %51

50:                                               ; preds = %47
  store ptr null, ptr %5, align 8
  store i32 1, ptr %16, align 4
  br label %152

51:                                               ; preds = %47
  %52 = load i64, ptr %15, align 8, !tbaa !18
  %53 = icmp uge i64 %52, 65536
  br i1 %53, label %54, label %57

54:                                               ; preds = %51
  %55 = load i32, ptr %10, align 4, !tbaa !8
  %56 = add nsw i32 %55, 4
  store i32 %56, ptr %10, align 4, !tbaa !8
  br label %60

57:                                               ; preds = %51
  %58 = load i32, ptr %10, align 4, !tbaa !8
  %59 = add nsw i32 %58, 2
  store i32 %59, ptr %10, align 4, !tbaa !8
  br label %60

60:                                               ; preds = %57, %54
  br label %61

61:                                               ; preds = %60
  %62 = load i32, ptr %12, align 4, !tbaa !8
  %63 = load i32, ptr %11, align 4, !tbaa !8
  %64 = add nsw i32 %63, %62
  store i32 %64, ptr %11, align 4, !tbaa !8
  br label %26, !llvm.loop !20

65:                                               ; preds = %26
  %66 = load i32, ptr %10, align 4, !tbaa !8
  %67 = add nsw i32 %66, 2
  store i32 %67, ptr %10, align 4, !tbaa !8
  %68 = load i32, ptr %10, align 4, !tbaa !8
  %69 = sext i32 %68 to i64
  %70 = call noalias ptr @CRYPTO_malloc(i64 noundef %69, ptr noundef @.str, i32 noundef 120)
  store ptr %70, ptr %14, align 8, !tbaa !3
  %71 = icmp eq ptr %70, null
  br i1 %71, label %72, label %73

72:                                               ; preds = %65
  store ptr null, ptr %5, align 8
  store i32 1, ptr %16, align 4
  br label %152

73:                                               ; preds = %65
  %74 = load ptr, ptr %14, align 8, !tbaa !3
  store ptr %74, ptr %13, align 8, !tbaa !3
  store i32 0, ptr %11, align 4, !tbaa !8
  br label %75

75:                                               ; preds = %130, %73
  %76 = load i32, ptr %11, align 4, !tbaa !8
  %77 = load i32, ptr %7, align 4, !tbaa !8
  %78 = icmp slt i32 %76, %77
  br i1 %78, label %79, label %134

79:                                               ; preds = %75
  %80 = load ptr, ptr %6, align 8, !tbaa !3
  %81 = load i32, ptr %11, align 4, !tbaa !8
  %82 = sext i32 %81 to i64
  %83 = getelementptr inbounds i8, ptr %80, i64 %82
  %84 = load i32, ptr %7, align 4, !tbaa !8
  %85 = load i32, ptr %11, align 4, !tbaa !8
  %86 = sub nsw i32 %84, %85
  %87 = call i32 @UTF8_getc(ptr noundef %83, i32 noundef %86, ptr noundef %15)
  store i32 %87, ptr %12, align 4, !tbaa !8
  %88 = load i64, ptr %15, align 8, !tbaa !18
  %89 = icmp uge i64 %88, 65536
  br i1 %89, label %90, label %119

90:                                               ; preds = %79
  call void @llvm.lifetime.start.p0(i64 4, ptr %17) #4
  call void @llvm.lifetime.start.p0(i64 4, ptr %18) #4
  %91 = load i64, ptr %15, align 8, !tbaa !18
  %92 = sub i64 %91, 65536
  store i64 %92, ptr %15, align 8, !tbaa !18
  %93 = load i64, ptr %15, align 8, !tbaa !18
  %94 = lshr i64 %93, 10
  %95 = add i64 55296, %94
  %96 = trunc i64 %95 to i32
  store i32 %96, ptr %17, align 4, !tbaa !8
  %97 = load i64, ptr %15, align 8, !tbaa !18
  %98 = and i64 %97, 1023
  %99 = add i64 56320, %98
  %100 = trunc i64 %99 to i32
  store i32 %100, ptr %18, align 4, !tbaa !8
  %101 = load i32, ptr %17, align 4, !tbaa !8
  %102 = lshr i32 %101, 8
  %103 = trunc i32 %102 to i8
  %104 = load ptr, ptr %13, align 8, !tbaa !3
  %105 = getelementptr inbounds nuw i8, ptr %104, i32 1
  store ptr %105, ptr %13, align 8, !tbaa !3
  store i8 %103, ptr %104, align 1, !tbaa !14
  %106 = load i32, ptr %17, align 4, !tbaa !8
  %107 = trunc i32 %106 to i8
  %108 = load ptr, ptr %13, align 8, !tbaa !3
  %109 = getelementptr inbounds nuw i8, ptr %108, i32 1
  store ptr %109, ptr %13, align 8, !tbaa !3
  store i8 %107, ptr %108, align 1, !tbaa !14
  %110 = load i32, ptr %18, align 4, !tbaa !8
  %111 = lshr i32 %110, 8
  %112 = trunc i32 %111 to i8
  %113 = load ptr, ptr %13, align 8, !tbaa !3
  %114 = getelementptr inbounds nuw i8, ptr %113, i32 1
  store ptr %114, ptr %13, align 8, !tbaa !3
  store i8 %112, ptr %113, align 1, !tbaa !14
  %115 = load i32, ptr %18, align 4, !tbaa !8
  %116 = trunc i32 %115 to i8
  %117 = load ptr, ptr %13, align 8, !tbaa !3
  %118 = getelementptr inbounds nuw i8, ptr %117, i32 1
  store ptr %118, ptr %13, align 8, !tbaa !3
  store i8 %116, ptr %117, align 1, !tbaa !14
  call void @llvm.lifetime.end.p0(i64 4, ptr %18) #4
  call void @llvm.lifetime.end.p0(i64 4, ptr %17) #4
  br label %129

119:                                              ; preds = %79
  %120 = load i64, ptr %15, align 8, !tbaa !18
  %121 = lshr i64 %120, 8
  %122 = trunc i64 %121 to i8
  %123 = load ptr, ptr %13, align 8, !tbaa !3
  %124 = getelementptr inbounds nuw i8, ptr %123, i32 1
  store ptr %124, ptr %13, align 8, !tbaa !3
  store i8 %122, ptr %123, align 1, !tbaa !14
  %125 = load i64, ptr %15, align 8, !tbaa !18
  %126 = trunc i64 %125 to i8
  %127 = load ptr, ptr %13, align 8, !tbaa !3
  %128 = getelementptr inbounds nuw i8, ptr %127, i32 1
  store ptr %128, ptr %13, align 8, !tbaa !3
  store i8 %126, ptr %127, align 1, !tbaa !14
  br label %129

129:                                              ; preds = %119, %90
  br label %130

130:                                              ; preds = %129
  %131 = load i32, ptr %12, align 4, !tbaa !8
  %132 = load i32, ptr %11, align 4, !tbaa !8
  %133 = add nsw i32 %132, %131
  store i32 %133, ptr %11, align 4, !tbaa !8
  br label %75, !llvm.loop !21

134:                                              ; preds = %75
  %135 = load ptr, ptr %13, align 8, !tbaa !3
  %136 = getelementptr inbounds nuw i8, ptr %135, i32 1
  store ptr %136, ptr %13, align 8, !tbaa !3
  store i8 0, ptr %135, align 1, !tbaa !14
  %137 = load ptr, ptr %13, align 8, !tbaa !3
  %138 = getelementptr inbounds nuw i8, ptr %137, i32 1
  store ptr %138, ptr %13, align 8, !tbaa !3
  store i8 0, ptr %137, align 1, !tbaa !14
  %139 = load ptr, ptr %9, align 8, !tbaa !12
  %140 = icmp ne ptr %139, null
  br i1 %140, label %141, label %144

141:                                              ; preds = %134
  %142 = load i32, ptr %10, align 4, !tbaa !8
  %143 = load ptr, ptr %9, align 8, !tbaa !12
  store i32 %142, ptr %143, align 4, !tbaa !8
  br label %144

144:                                              ; preds = %141, %134
  %145 = load ptr, ptr %8, align 8, !tbaa !10
  %146 = icmp ne ptr %145, null
  br i1 %146, label %147, label %150

147:                                              ; preds = %144
  %148 = load ptr, ptr %14, align 8, !tbaa !3
  %149 = load ptr, ptr %8, align 8, !tbaa !10
  store ptr %148, ptr %149, align 8, !tbaa !3
  br label %150

150:                                              ; preds = %147, %144
  %151 = load ptr, ptr %14, align 8, !tbaa !3
  store ptr %151, ptr %5, align 8
  store i32 1, ptr %16, align 4
  br label %152

152:                                              ; preds = %150, %72, %50, %41
  call void @llvm.lifetime.end.p0(i64 8, ptr %15) #4
  call void @llvm.lifetime.end.p0(i64 8, ptr %14) #4
  call void @llvm.lifetime.end.p0(i64 8, ptr %13) #4
  call void @llvm.lifetime.end.p0(i64 4, ptr %12) #4
  call void @llvm.lifetime.end.p0(i64 4, ptr %11) #4
  call void @llvm.lifetime.end.p0(i64 4, ptr %10) #4
  %153 = load ptr, ptr %5, align 8
  ret ptr %153
}