; Function Attrs: nounwind uwtable
define ptr @OPENSSL_utf82uni(ptr noundef %0, i32 noundef %1, ptr noundef writeonly captures(address_is_null) %2, ptr noundef writeonly captures(address_is_null) %3) local_unnamed_addr #0 {
  %5 = alloca i64, align 8
  call void @llvm.lifetime.start.p0(i64 8, ptr nonnull %5) #6
  store i64 0, ptr %5, align 8, !tbaa !14
  %6 = icmp eq i32 %1, -1
  br i1 %6, label %7, label %10

7:                                                ; preds = %4
  %8 = tail call i64 @strlen(ptr noundef nonnull dereferenceable(1) %0) #5
  %9 = trunc i64 %8 to i32
  br label %10

10:                                               ; preds = %7, %4
  %.047 = phi i32 [ %9, %7 ], [ %1, %4 ]
  %11 = icmp sgt i32 %.047, 0
  br i1 %11, label %.lr.ph, label %._crit_edge.thread

.lr.ph:                                           ; preds = %10, %40
  %.04865 = phi i32 [ %.1, %40 ], [ 0, %10 ]
  %.05164 = phi i32 [ %42, %40 ], [ 0, %10 ]
  %12 = zext nneg i32 %.05164 to i64
  %13 = getelementptr inbounds nuw i8, ptr %0, i64 %12
  %14 = sub nsw i32 %.047, %.05164
  %15 = call i32 @UTF8_getc(ptr noundef %13, i32 noundef %14, ptr noundef nonnull %5) #6
  %16 = icmp slt i32 %15, 0
  br i1 %16, label %17, label %37

17:                                               ; preds = %.lr.ph
  %18 = shl nuw nsw i32 %.047, 1
  %19 = add nuw nsw i32 %18, 2
  %20 = zext nneg i32 %19 to i64
  %21 = call noalias ptr @CRYPTO_malloc(i64 noundef %20, ptr noundef nonnull @.str, i32 noundef 29) #6
  %22 = icmp eq ptr %21, null
  br i1 %22, label %OPENSSL_asc2uni.exit, label %.lr.ph.preheader.i

.lr.ph.preheader.i:                               ; preds = %17
  %23 = zext nneg i32 %18 to i64
  br label %.lr.ph.i

.lr.ph.i:                                         ; preds = %.lr.ph.i, %.lr.ph.preheader.i
  %indvars.iv.i = phi i64 [ 0, %.lr.ph.preheader.i ], [ %indvars.iv.next.i, %.lr.ph.i ]
  %24 = getelementptr inbounds nuw i8, ptr %21, i64 %indvars.iv.i
  store i8 0, ptr %24, align 1, !tbaa !3
  %25 = lshr exact i64 %indvars.iv.i, 1
  %26 = getelementptr inbounds nuw i8, ptr %0, i64 %25
  %27 = load i8, ptr %26, align 1, !tbaa !3
  %28 = or disjoint i64 %indvars.iv.i, 1
  %29 = getelementptr inbounds nuw i8, ptr %21, i64 %28
  store i8 %27, ptr %29, align 1, !tbaa !3
  %indvars.iv.next.i = add nuw nsw i64 %indvars.iv.i, 2
  %30 = icmp samesign ult i64 %indvars.iv.next.i, %23
  br i1 %30, label %.lr.ph.i, label %._crit_edge.i, !llvm.loop !6

._crit_edge.i:                                    ; preds = %.lr.ph.i
  %31 = getelementptr inbounds nuw i8, ptr %21, i64 %23
  store i8 0, ptr %31, align 1, !tbaa !3
  %32 = or disjoint i32 %18, 1
  %33 = zext nneg i32 %32 to i64
  %34 = getelementptr inbounds nuw i8, ptr %21, i64 %33
  store i8 0, ptr %34, align 1, !tbaa !3
  %.not.i = icmp eq ptr %3, null
  br i1 %.not.i, label %36, label %35

35:                                               ; preds = %._crit_edge.i
  store i32 %19, ptr %3, align 4, !tbaa !8
  br label %36

36:                                               ; preds = %35, %._crit_edge.i
  %.not32.i = icmp eq ptr %2, null
  br i1 %.not32.i, label %OPENSSL_asc2uni.exit, label %OPENSSL_asc2uni.exit.sink.split

37:                                               ; preds = %.lr.ph
  %38 = load i64, ptr %5, align 8, !tbaa !14
  %39 = icmp ugt i64 %38, 1114111
  br i1 %39, label %OPENSSL_asc2uni.exit, label %40

40:                                               ; preds = %37
  %41 = icmp samesign ugt i64 %38, 65535
  %.1.v = select i1 %41, i32 4, i32 2
  %.1 = add nuw nsw i32 %.1.v, %.04865
  %42 = add nuw nsw i32 %15, %.05164
  %43 = icmp slt i32 %42, %.047
  br i1 %43, label %.lr.ph, label %._crit_edge, !llvm.loop !16

._crit_edge:                                      ; preds = %40
  %44 = add nuw nsw i32 %.1, 2
  %45 = zext nneg i32 %44 to i64
  %46 = call noalias ptr @CRYPTO_malloc(i64 noundef %45, ptr noundef nonnull @.str, i32 noundef 120) #6
  %47 = icmp eq ptr %46, null
  br i1 %47, label %OPENSSL_asc2uni.exit, label %.lr.ph68

._crit_edge.thread:                               ; preds = %10
  %48 = tail call noalias ptr @CRYPTO_malloc(i64 noundef 2, ptr noundef nonnull @.str, i32 noundef 120) #6
  %49 = icmp eq ptr %48, null
  br i1 %49, label %OPENSSL_asc2uni.exit, label %._crit_edge69

.lr.ph68:                                         ; preds = %._crit_edge, %76
  %.04967 = phi ptr [ %.150, %76 ], [ %46, %._crit_edge ]
  %.15266 = phi i32 [ %78, %76 ], [ 0, %._crit_edge ]
  %50 = sext i32 %.15266 to i64
  %51 = getelementptr inbounds i8, ptr %0, i64 %50
  %52 = sub nsw i32 %.047, %.15266
  %53 = call i32 @UTF8_getc(ptr noundef %51, i32 noundef %52, ptr noundef nonnull %5) #6
  %54 = load i64, ptr %5, align 8, !tbaa !14
  %55 = icmp ugt i64 %54, 65535
  br i1 %55, label %56, label %71

56:                                               ; preds = %.lr.ph68
  %57 = add i64 %54, -65536
  store i64 %57, ptr %5, align 8, !tbaa !14
  %58 = lshr i64 %57, 10
  %59 = trunc i64 %58 to i32
  %60 = add i32 %59, 55296
  %61 = lshr i32 %60, 8
  %62 = trunc i32 %61 to i8
  store i8 %62, ptr %.04967, align 1, !tbaa !3
  %63 = getelementptr inbounds nuw i8, ptr %.04967, i64 2
  %64 = lshr i64 %54, 8
  %65 = trunc i64 %64 to i8
  %66 = and i8 %65, 3
  %67 = or disjoint i8 %66, -36
  %68 = getelementptr inbounds nuw i8, ptr %.04967, i64 3
  store i8 %67, ptr %63, align 1, !tbaa !3
  %69 = trunc i64 %54 to i8
  %70 = getelementptr inbounds nuw i8, ptr %.04967, i64 4
  store i8 %69, ptr %68, align 1, !tbaa !3
  br label %76

71:                                               ; preds = %.lr.ph68
  %72 = lshr i64 %54, 8
  %73 = trunc nuw i64 %72 to i8
  store i8 %73, ptr %.04967, align 1, !tbaa !3
  %74 = load i64, ptr %5, align 8, !tbaa !14
  %75 = getelementptr inbounds nuw i8, ptr %.04967, i64 2
  br label %76

76:                                               ; preds = %56, %71
  %.sink.in = phi i64 [ %58, %56 ], [ %74, %71 ]
  %.150 = phi ptr [ %70, %56 ], [ %75, %71 ]
  %.sink = trunc i64 %.sink.in to i8
  %77 = getelementptr inbounds nuw i8, ptr %.04967, i64 1
  store i8 %.sink, ptr %77, align 1, !tbaa !3
  %78 = add nsw i32 %53, %.15266
  %79 = icmp slt i32 %78, %.047
  br i1 %79, label %.lr.ph68, label %._crit_edge69, !llvm.loop !17

._crit_edge69:                                    ; preds = %76, %._crit_edge.thread
  %.048.lcssa7274 = phi i32 [ 2, %._crit_edge.thread ], [ %44, %76 ]
  %80 = phi ptr [ %48, %._crit_edge.thread ], [ %46, %76 ]
  %.049.lcssa = phi ptr [ %48, %._crit_edge.thread ], [ %.150, %76 ]
  %81 = getelementptr inbounds nuw i8, ptr %.049.lcssa, i64 1
  store i8 0, ptr %.049.lcssa, align 1, !tbaa !3
  store i8 0, ptr %81, align 1, !tbaa !3
  %.not = icmp eq ptr %3, null
  br i1 %.not, label %83, label %82

82:                                               ; preds = %._crit_edge69
  store i32 %.048.lcssa7274, ptr %3, align 4, !tbaa !8
  br label %83

83:                                               ; preds = %82, %._crit_edge69
  %.not61 = icmp eq ptr %2, null
  br i1 %.not61, label %OPENSSL_asc2uni.exit, label %OPENSSL_asc2uni.exit.sink.split

OPENSSL_asc2uni.exit.sink.split:                  ; preds = %83, %36
  %.sink75 = phi ptr [ %21, %36 ], [ %80, %83 ]
  store ptr %.sink75, ptr %2, align 8, !tbaa !10
  br label %OPENSSL_asc2uni.exit

OPENSSL_asc2uni.exit:                             ; preds = %37, %OPENSSL_asc2uni.exit.sink.split, %._crit_edge.thread, %36, %17, %83, %._crit_edge
  %.0 = phi ptr [ null, %._crit_edge ], [ %80, %83 ], [ null, %17 ], [ %21, %36 ], [ null, %._crit_edge.thread ], [ %.sink75, %OPENSSL_asc2uni.exit.sink.split ], [ null, %37 ]
  call void @llvm.lifetime.end.p0(i64 8, ptr nonnull %5) #6
  ret ptr %.0
}